target datalayout = "e-m:e-p270:32:32-p271:32:32-p272:64:64-i64:64-i128:128-f80:128-n8:16:32:64-S128"
target triple = "x86_64-pc-linux-gnu"

; Function Attrs: mustprogress nounwind uwtable
define noundef i32 @_Z15gmx_strncasecmpPKcS0_i(ptr noundef %0, ptr noundef %1, i32 noundef %2) #1 {
  %4 = alloca i32, align 4
  %5 = alloca ptr, align 8
  %6 = alloca ptr, align 8
  %7 = alloca i32, align 4
  %8 = alloca i8, align 1
  %9 = alloca i8, align 1
  %10 = alloca i32, align 4
  store ptr %0, ptr %5, align 8, !tbaa !4
  store ptr %1, ptr %6, align 8, !tbaa !4
  store i32 %2, ptr %7, align 4, !tbaa !9
  call void @llvm.lifetime.start.p0(i64 1, ptr %8) #13
  store i8 0, ptr %8, align 1, !tbaa !11
  call void @llvm.lifetime.start.p0(i64 1, ptr %9) #13
  store i8 0, ptr %9, align 1, !tbaa !11
  %11 = load i32, ptr %7, align 4, !tbaa !9
  %12 = icmp eq i32 %11, 0
  br i1 %12, label %13, label %14

13:                                               ; preds = %3
  store i32 0, ptr %4, align 4
  store i32 1, ptr %10, align 4
  br label %52

14:                                               ; preds = %3
  br label %15

15:                                               ; preds = %49, %14
  %16 = load ptr, ptr %5, align 8, !tbaa !4
  %17 = getelementptr inbounds nuw i8, ptr %16, i32 1
  store ptr %17, ptr %5, align 8, !tbaa !4
  %18 = load i8, ptr %16, align 1, !tbaa !11
  %19 = sext i8 %18 to i32
  %20 = call i32 @toupper(i32 noundef %19) #14
  %21 = trunc i32 %20 to i8
  store i8 %21, ptr %8, align 1, !tbaa !11
  %22 = load ptr, ptr %6, align 8, !tbaa !4
  %23 = getelementptr inbounds nuw i8, ptr %22, i32 1
  store ptr %23, ptr %6, align 8, !tbaa !4
  %24 = load i8, ptr %22, align 1, !tbaa !11
  %25 = sext i8 %24 to i32
  %26 = call i32 @toupper(i32 noundef %25) #14
  %27 = trunc i32 %26 to i8
  store i8 %27, ptr %9, align 1, !tbaa !11
  %28 = load i8, ptr %8, align 1, !tbaa !11
  %29 = sext i8 %28 to i32
  %30 = load i8, ptr %9, align 1, !tbaa !11
  %31 = sext i8 %30 to i32
  %32 = icmp ne i32 %29, %31
  br i1 %32, label %33, label %39

33:                                               ; preds = %15
  %34 = load i8, ptr %8, align 1, !tbaa !11
  %35 = sext i8 %34 to i32
  %36 = load i8, ptr %9, align 1, !tbaa !11
  %37 = sext i8 %36 to i32
  %38 = sub nsw i32 %35, %37
  store i32 %38, ptr %4, align 4
  store i32 1, ptr %10, align 4
  br label %52

39:                                               ; preds = %15
  %40 = load i32, ptr %7, align 4, !tbaa !9
  %41 = add nsw i32 %40, -1
  store i32 %41, ptr %7, align 4, !tbaa !9
  br label %42

42:                                               ; preds = %39
  %43 = load i8, ptr %8, align 1, !tbaa !11
  %44 = sext i8 %43 to i32
  %45 = icmp ne i32 %44, 0
  br i1 %45, label %46, label %49

46:                                               ; preds = %42
  %47 = load i32, ptr %7, align 4, !tbaa !9
  %48 = icmp ne i32 %47, 0
  br label %49

49:                                               ; preds = %46, %42
  %50 = phi i1 [ false, %42 ], [ %48, %46 ]
  br i1 %50, label %15, label %51, !llvm.loop !80

51:                                               ; preds = %49
  store i32 0, ptr %4, align 4
  store i32 1, ptr %10, align 4
  br label %52

52:                                               ; preds = %51, %33, %13
  call void @llvm.lifetime.end.p0(i64 1, ptr %9) #13
  call void @llvm.lifetime.end.p0(i64 1, ptr %8) #13
  %53 = load i32, ptr %4, align 4
  ret i32 %53
}