; Function Attrs: mustprogress nofree nounwind willreturn memory(read) uwtable
define noundef range(i32 -255, 256) i32 @_Z15gmx_strncasecmpPKcS0_i(ptr noundef readonly captures(none) %0, ptr noundef readonly captures(none) %1, i32 noundef %2) local_unnamed_addr #14 {
  %4 = icmp eq i32 %2, 0
  br i1 %4, label %.loopexit, label %.preheader

.preheader:                                       ; preds = %3, %15
  %.011 = phi ptr [ %17, %15 ], [ %0, %3 ]
  %.010 = phi ptr [ %16, %15 ], [ %1, %3 ]
  %.0 = phi i32 [ %18, %15 ], [ %2, %3 ]
  %5 = load i8, ptr %.011, align 1, !tbaa !4
  %6 = sext i8 %5 to i32
  %7 = tail call i32 @toupper(i32 noundef %6) #24
  %8 = load i8, ptr %.010, align 1, !tbaa !4
  %9 = sext i8 %8 to i32
  %10 = tail call i32 @toupper(i32 noundef %9) #24
  %sext = shl i32 %7, 24
  %11 = ashr exact i32 %sext, 24
  %sext17 = shl i32 %10, 24
  %12 = ashr exact i32 %sext17, 24
  %.not = icmp eq i32 %11, %12
  br i1 %.not, label %15, label %13

13:                                               ; preds = %.preheader
  %14 = sub nsw i32 %11, %12
  br label %.loopexit

15:                                               ; preds = %.preheader
  %16 = getelementptr inbounds nuw i8, ptr %.010, i64 1
  %17 = getelementptr inbounds nuw i8, ptr %.011, i64 1
  %18 = add nsw i32 %.0, -1
  %19 = icmp ne i32 %sext, 0
  %20 = icmp ne i32 %18, 0
  %21 = select i1 %19, i1 %20, i1 false
  br i1 %21, label %.preheader, label %.loopexit, !llvm.loop !26

.loopexit:                                        ; preds = %15, %3, %13
  %.012 = phi i32 [ %14, %13 ], [ 0, %3 ], [ 0, %15 ]
  ret i32 %.012
}